; Function Attrs: nounwind uwtable
define ptr @l_Lean_withoutModifyingState___rarg___lambda__3(ptr noundef %0, ptr noundef %1, ptr noundef %2, ptr noundef %3, ptr noundef %4) #0 {
  %6 = getelementptr inbounds nuw i8, ptr %0, i64 8
  %7 = load ptr, ptr %6, align 8, !tbaa !4
  %8 = ptrtoint ptr %7 to i64
  %9 = and i64 %8, 1
  %.not = icmp eq i64 %9, 0
  br i1 %.not, label %10, label %lean_inc.exit25

10:                                               ; preds = %5
  %.val.i = load i32, ptr %7, align 4, !tbaa !8
  %11 = icmp sgt i32 %.val.i, 0
  br i1 %11, label %12, label %14, !prof !11

12:                                               ; preds = %10
  %13 = add nuw i32 %.val.i, 1
  store i32 %13, ptr %7, align 4, !tbaa !8
  br label %lean_inc.exit25

14:                                               ; preds = %10
  %.not.i35 = icmp eq i32 %.val.i, 0
  br i1 %.not.i35, label %lean_inc.exit25, label %15

15:                                               ; preds = %14
  tail call void @lean_inc_ref_cold(ptr noundef nonnull %7) #3
  br label %lean_inc.exit25

lean_inc.exit25:                                  ; preds = %15, %14, %12, %5
  %16 = ptrtoint ptr %0 to i64
  %17 = and i64 %16, 1
  %.not45 = icmp eq i64 %17, 0
  br i1 %.not45, label %18, label %lean_dec.exit28

18:                                               ; preds = %lean_inc.exit25
  %19 = load i32, ptr %0, align 4, !tbaa !8
  %20 = icmp sgt i32 %19, 1
  br i1 %20, label %21, label %23, !prof !11

21:                                               ; preds = %18
  %22 = add nsw i32 %19, -1
  store i32 %22, ptr %0, align 4, !tbaa !8
  br label %lean_dec.exit28

23:                                               ; preds = %18
  %.not.i = icmp eq i32 %19, 0
  br i1 %.not.i, label %lean_dec.exit28, label %24

24:                                               ; preds = %23
  tail call void @lean_dec_ref_cold(ptr noundef nonnull %0) #3
  br label %lean_dec.exit28

lean_dec.exit28:                                  ; preds = %24, %23, %21, %lean_inc.exit25
  %25 = getelementptr inbounds nuw i8, ptr %7, i64 8
  %26 = load ptr, ptr %25, align 8, !tbaa !4
  %27 = ptrtoint ptr %26 to i64
  %28 = and i64 %27, 1
  %.not46 = icmp eq i64 %28, 0
  br i1 %.not46, label %29, label %lean_inc.exit24

29:                                               ; preds = %lean_dec.exit28
  %.val.i36 = load i32, ptr %26, align 4, !tbaa !8
  %30 = icmp sgt i32 %.val.i36, 0
  br i1 %30, label %31, label %33, !prof !11

31:                                               ; preds = %29
  %32 = add nuw i32 %.val.i36, 1
  store i32 %32, ptr %26, align 4, !tbaa !8
  br label %lean_inc.exit24

33:                                               ; preds = %29
  %.not.i37 = icmp eq i32 %.val.i36, 0
  br i1 %.not.i37, label %lean_inc.exit24, label %34

34:                                               ; preds = %33
  tail call void @lean_inc_ref_cold(ptr noundef nonnull %26) #3
  br label %lean_inc.exit24

lean_inc.exit24:                                  ; preds = %34, %33, %31, %lean_dec.exit28
  br i1 %.not, label %35, label %lean_dec.exit27

35:                                               ; preds = %lean_inc.exit24
  %36 = load i32, ptr %7, align 4, !tbaa !8
  %37 = icmp sgt i32 %36, 1
  br i1 %37, label %38, label %40, !prof !11

38:                                               ; preds = %35
  %39 = add nsw i32 %36, -1
  store i32 %39, ptr %7, align 4, !tbaa !8
  br label %lean_dec.exit27

40:                                               ; preds = %35
  %.not.i29 = icmp eq i32 %36, 0
  br i1 %.not.i29, label %lean_dec.exit27, label %41

41:                                               ; preds = %40
  tail call void @lean_dec_ref_cold(ptr noundef nonnull %7) #3
  br label %lean_dec.exit27

lean_dec.exit27:                                  ; preds = %41, %40, %38, %lean_inc.exit24
  %42 = getelementptr inbounds nuw i8, ptr %1, i64 16
  %43 = load ptr, ptr %42, align 8, !tbaa !4
  %44 = ptrtoint ptr %43 to i64
  %45 = and i64 %44, 1
  %.not47 = icmp eq i64 %45, 0
  br i1 %.not47, label %46, label %lean_inc.exit23

46:                                               ; preds = %lean_dec.exit27
  %.val.i39 = load i32, ptr %43, align 4, !tbaa !8
  %47 = icmp sgt i32 %.val.i39, 0
  br i1 %47, label %48, label %50, !prof !11

48:                                               ; preds = %46
  %49 = add nuw i32 %.val.i39, 1
  store i32 %49, ptr %43, align 4, !tbaa !8
  br label %lean_inc.exit23

50:                                               ; preds = %46
  %.not.i40 = icmp eq i32 %.val.i39, 0
  br i1 %.not.i40, label %lean_inc.exit23, label %51

51:                                               ; preds = %50
  tail call void @lean_inc_ref_cold(ptr noundef nonnull %43) #3
  br label %lean_inc.exit23

lean_inc.exit23:                                  ; preds = %51, %50, %48, %lean_dec.exit27
  %52 = ptrtoint ptr %1 to i64
  %53 = and i64 %52, 1
  %.not48 = icmp eq i64 %53, 0
  br i1 %.not48, label %54, label %lean_dec.exit26

54:                                               ; preds = %lean_inc.exit23
  %55 = load i32, ptr %1, align 4, !tbaa !8
  %56 = icmp sgt i32 %55, 1
  br i1 %56, label %57, label %59, !prof !11

57:                                               ; preds = %54
  %58 = add nsw i32 %55, -1
  store i32 %58, ptr %1, align 4, !tbaa !8
  br label %lean_dec.exit26

59:                                               ; preds = %54
  %.not.i31 = icmp eq i32 %55, 0
  br i1 %.not.i31, label %lean_dec.exit26, label %60

60:                                               ; preds = %59
  tail call void @lean_dec_ref_cold(ptr noundef nonnull %1) #3
  br label %lean_dec.exit26

lean_dec.exit26:                                  ; preds = %60, %59, %57, %lean_inc.exit23
  %61 = tail call ptr @lean_apply_1(ptr noundef %43, ptr noundef %4) #3
  tail call void @lean_inc_heartbeat() #3
  %62 = tail call noalias ptr @mi_malloc_small(i64 noundef 32) #3
  %63 = icmp eq ptr %62, null
  br i1 %63, label %64, label %lean_alloc_closure.exit

64:                                               ; preds = %lean_dec.exit26
  tail call void @lean_internal_panic_out_of_memory() #4
  unreachable

lean_alloc_closure.exit:                          ; preds = %lean_dec.exit26
  %65 = getelementptr inbounds nuw i8, ptr %62, i64 4
  store i32 1, ptr %62, align 4, !tbaa !8
  store i32 -184549344, ptr %65, align 4
  %66 = getelementptr inbounds nuw i8, ptr %62, i64 8
  store ptr @l_Lean_withoutModifyingState___rarg___lambda__1___boxed, ptr %66, align 8, !tbaa !4
  %67 = getelementptr inbounds nuw i8, ptr %62, i64 16
  store i16 2, ptr %67, align 8, !tbaa !12
  %68 = getelementptr inbounds nuw i8, ptr %62, i64 18
  store i16 1, ptr %68, align 2, !tbaa !12
  %69 = getelementptr inbounds nuw i8, ptr %62, i64 24
  store ptr %61, ptr %69, align 8, !tbaa !4
  %70 = tail call ptr @lean_apply_4(ptr noundef %2, ptr noundef nonnull inttoptr (i64 1 to ptr), ptr noundef nonnull inttoptr (i64 1 to ptr), ptr noundef %3, ptr noundef nonnull %62) #3
  %71 = getelementptr inbounds nuw i8, ptr %26, i64 8
  %72 = load ptr, ptr %71, align 8, !tbaa !4
  %73 = ptrtoint ptr %72 to i64
  %74 = and i64 %73, 1
  %.not49 = icmp eq i64 %74, 0
  br i1 %.not49, label %75, label %lean_inc.exit

75:                                               ; preds = %lean_alloc_closure.exit
  %.val.i42 = load i32, ptr %72, align 4, !tbaa !8
  %76 = icmp sgt i32 %.val.i42, 0
  br i1 %76, label %77, label %79, !prof !11

77:                                               ; preds = %75
  %78 = add nuw i32 %.val.i42, 1
  store i32 %78, ptr %72, align 4, !tbaa !8
  br label %lean_inc.exit

79:                                               ; preds = %75
  %.not.i43 = icmp eq i32 %.val.i42, 0
  br i1 %.not.i43, label %lean_inc.exit, label %80

80:                                               ; preds = %79
  tail call void @lean_inc_ref_cold(ptr noundef nonnull %72) #3
  br label %lean_inc.exit

lean_inc.exit:                                    ; preds = %80, %79, %77, %lean_alloc_closure.exit
  br i1 %.not46, label %81, label %lean_dec.exit

81:                                               ; preds = %lean_inc.exit
  %82 = load i32, ptr %26, align 4, !tbaa !8
  %83 = icmp sgt i32 %82, 1
  br i1 %83, label %84, label %86, !prof !11

84:                                               ; preds = %81
  %85 = add nsw i32 %82, -1
  store i32 %85, ptr %26, align 4, !tbaa !8
  br label %lean_dec.exit

86:                                               ; preds = %81
  %.not.i33 = icmp eq i32 %82, 0
  br i1 %.not.i33, label %lean_dec.exit, label %87

87:                                               ; preds = %86
  tail call void @lean_dec_ref_cold(ptr noundef nonnull %26) #3
  br label %lean_dec.exit

lean_dec.exit:                                    ; preds = %87, %86, %84, %lean_inc.exit
  %88 = load ptr, ptr @l_Lean_withoutModifyingState___rarg___lambda__3___closed__1, align 8, !tbaa !4
  %89 = tail call ptr @lean_apply_4(ptr noundef %72, ptr noundef nonnull inttoptr (i64 1 to ptr), ptr noundef nonnull inttoptr (i64 1 to ptr), ptr noundef %88, ptr noundef %70) #3
  ret ptr %89
}